target datalayout = "e-m:e-p270:32:32-p271:32:32-p272:64:64-i64:64-i128:128-f80:128-n8:16:32:64-S128"
target triple = "x86_64-pc-linux-gnu"

%struct._object = type { %union.anon, ptr }
%union.anon = type { i64 }
%struct.PyVarObject = type { %struct._object, i64 }
%struct.PyTupleObject = type { %struct.PyVarObject, [1 x ptr] }
%struct._typeobject = type { %struct.PyVarObject, ptr, i64, i64, ptr, i64, ptr, ptr, ptr, ptr, ptr, ptr, ptr, ptr, ptr, ptr, ptr, ptr, ptr, i64, ptr, ptr, ptr, ptr, i64, ptr, ptr, ptr, ptr, ptr, ptr, ptr, ptr, ptr, i64, ptr, ptr, ptr, ptr, ptr, ptr, ptr, ptr, ptr, ptr, ptr, i32, ptr, ptr, i8, i16 }
%struct.anon.4 = type { i32, i32 }

@_Py_NoneStruct = external global %struct._object, align 8
@PyExc_TypeError = external global ptr, align 8
@.str.38 = private unnamed_addr constant [27 x i8] c"unable to get the type MRO\00", align 1
@.str.52 = private unnamed_addr constant [48 x i8] c"Creating immutable type %s from mutable base %N\00", align 1

; Function Attrs: inlinehint nounwind uwtable
define internal i64 @Py_SIZE(ptr noundef %0) #2 {
  %2 = alloca ptr, align 8
  store ptr %0, ptr %2, align 8, !tbaa !97
  %3 = load ptr, ptr %2, align 8, !tbaa !97
  %4 = getelementptr inbounds nuw %struct.PyVarObject, ptr %3, i32 0, i32 1
  %5 = load i64, ptr %4, align 8, !tbaa !375
  ret i64 %5
}

; Function Attrs: inlinehint nounwind uwtable
define internal i32 @_PyType_HasFeature(ptr noundef %0, i64 noundef %1) #2 {
  %3 = alloca ptr, align 8
  %4 = alloca i64, align 8
  store ptr %0, ptr %3, align 8, !tbaa !9
  store i64 %1, ptr %4, align 8, !tbaa !11
  %5 = load ptr, ptr %3, align 8, !tbaa !9
  %6 = getelementptr inbounds nuw %struct._typeobject, ptr %5, i32 0, i32 19
  %7 = load i64, ptr %6, align 8, !tbaa !105
  %8 = load i64, ptr %4, align 8, !tbaa !11
  %9 = and i64 %7, %8
  %10 = icmp ne i64 %9, 0
  %11 = zext i1 %10 to i32
  ret i32 %11
}

; Function Attrs: inlinehint nounwind uwtable
define internal i64 @PyTuple_GET_SIZE(ptr noundef %0) #2 {
  %2 = alloca ptr, align 8
  %3 = alloca ptr, align 8
  store ptr %0, ptr %2, align 8, !tbaa !97
  call void @llvm.lifetime.start.p0(i64 8, ptr %3) #11
  %4 = load ptr, ptr %2, align 8, !tbaa !97
  store ptr %4, ptr %3, align 8, !tbaa !13
  %5 = load ptr, ptr %3, align 8, !tbaa !13
  %6 = call i64 @Py_SIZE(ptr noundef %5)
  call void @llvm.lifetime.end.p0(i64 8, ptr %3) #11
  ret i64 %6
}

; Function Attrs: alwaysinline nounwind uwtable
define internal i32 @_Py_IsImmortal(ptr noundef %0) #4 {
  %2 = alloca ptr, align 8
  store ptr %0, ptr %2, align 8, !tbaa !97
  %3 = load ptr, ptr %2, align 8, !tbaa !97
  %4 = getelementptr inbounds nuw %struct._object, ptr %3, i32 0, i32 0
  %5 = getelementptr inbounds nuw %struct.anon.4, ptr %4, i32 0, i32 0
  %6 = load i32, ptr %5, align 8, !tbaa !114
  %7 = icmp slt i32 %6, 0
  %8 = zext i1 %7 to i32
  ret i32 %8
}

; Function Attrs: alwaysinline nounwind uwtable
define internal void @Py_INCREF(ptr noundef %0) #4 {
  %2 = alloca ptr, align 8
  %3 = alloca i32, align 4
  %4 = alloca i32, align 4
  store ptr %0, ptr %2, align 8, !tbaa !97
  call void @llvm.lifetime.start.p0(i64 4, ptr %3) #11
  %5 = load ptr, ptr %2, align 8, !tbaa !97
  %6 = getelementptr inbounds nuw %struct._object, ptr %5, i32 0, i32 0
  %7 = getelementptr inbounds nuw %struct.anon.4, ptr %6, i32 0, i32 0
  %8 = load i32, ptr %7, align 8, !tbaa !114
  store i32 %8, ptr %3, align 4, !tbaa !115
  %9 = load i32, ptr %3, align 4, !tbaa !115
  %10 = icmp slt i32 %9, 0
  br i1 %10, label %11, label %12

11:                                               ; preds = %1
  store i32 1, ptr %4, align 4
  br label %18

12:                                               ; preds = %1
  %13 = load i32, ptr %3, align 4, !tbaa !115
  %14 = add i32 %13, 1
  %15 = load ptr, ptr %2, align 8, !tbaa !97
  %16 = getelementptr inbounds nuw %struct._object, ptr %15, i32 0, i32 0
  %17 = getelementptr inbounds nuw %struct.anon.4, ptr %16, i32 0, i32 0
  store i32 %14, ptr %17, align 8, !tbaa !114
  store i32 0, ptr %4, align 4
  br label %18

18:                                               ; preds = %12, %11
  call void @llvm.lifetime.end.p0(i64 4, ptr %3) #11
  %19 = load i32, ptr %4, align 4
  switch i32 %19, label %21 [
    i32 0, label %20
    i32 1, label %20
  ]

20:                                               ; preds = %18, %18
  ret void

21:                                               ; preds = %18
  unreachable
}

; Function Attrs: inlinehint nounwind uwtable
define internal ptr @lookup_tp_mro(ptr noundef %0) #2 {
  %2 = alloca ptr, align 8
  store ptr %0, ptr %2, align 8, !tbaa !9
  %3 = load ptr, ptr %2, align 8, !tbaa !9
  %4 = getelementptr inbounds nuw %struct._typeobject, ptr %3, i32 0, i32 41
  %5 = load ptr, ptr %4, align 8, !tbaa !116
  ret ptr %5
}

; Function Attrs: nounwind uwtable
define dso_local void @PyType_Modified(ptr noundef %0) #0 {
  %2 = alloca ptr, align 8
  store ptr %0, ptr %2, align 8, !tbaa !9
  %3 = load ptr, ptr %2, align 8, !tbaa !9
  %4 = getelementptr inbounds nuw %struct._typeobject, ptr %3, i32 0, i32 46
  %5 = load i32, ptr %4, align 8, !tbaa !141
  %6 = icmp eq i32 %5, 0
  br i1 %6, label %7, label %8

7:                                                ; preds = %1
  br label %10

8:                                                ; preds = %1
  %9 = load ptr, ptr %2, align 8, !tbaa !9
  call void @type_modified_unlocked(ptr noundef %9)
  br label %10

10:                                               ; preds = %8, %7
  ret void
}

; Function Attrs: nounwind uwtable
define internal i32 @check_immutable_bases(ptr noundef %0, ptr noundef %1, i32 noundef %2) #0 {
  %4 = alloca i32, align 4
  %5 = alloca ptr, align 8
  %6 = alloca ptr, align 8
  %7 = alloca i32, align 4
  %8 = alloca i64, align 8
  %9 = alloca ptr, align 8
  %10 = alloca i32, align 4
  store ptr %0, ptr %5, align 8, !tbaa !123
  store ptr %1, ptr %6, align 8, !tbaa !97
  store i32 %2, ptr %7, align 4, !tbaa !115
  call void @llvm.lifetime.start.p0(i64 8, ptr %8) #11
  store i64 0, ptr %8, align 8, !tbaa !11
  %11 = load i32, ptr %7, align 4, !tbaa !115
  %12 = icmp ne i32 %11, 0
  br i1 %12, label %13, label %14

13:                                               ; preds = %3
  store i64 1, ptr %8, align 8, !tbaa !11
  br label %14

14:                                               ; preds = %13, %3
  br label %15

15:                                               ; preds = %42, %14
  %16 = load i64, ptr %8, align 8, !tbaa !11
  %17 = load ptr, ptr %6, align 8, !tbaa !97
  %18 = call i64 @PyTuple_GET_SIZE(ptr noundef %17)
  %19 = icmp slt i64 %16, %18
  br i1 %19, label %20, label %45

20:                                               ; preds = %15
  call void @llvm.lifetime.start.p0(i64 8, ptr %9) #11
  %21 = load ptr, ptr %6, align 8, !tbaa !97
  %22 = getelementptr inbounds nuw %struct.PyTupleObject, ptr %21, i32 0, i32 1
  %23 = load i64, ptr %8, align 8, !tbaa !11
  %24 = getelementptr [1 x ptr], ptr %22, i64 0, i64 %23
  %25 = load ptr, ptr %24, align 8, !tbaa !97
  store ptr %25, ptr %9, align 8, !tbaa !9
  %26 = load ptr, ptr %9, align 8, !tbaa !9
  %27 = icmp ne ptr %26, null
  br i1 %27, label %29, label %28

28:                                               ; preds = %20
  store i32 -1, ptr %4, align 4
  store i32 1, ptr %10, align 4
  br label %39

29:                                               ; preds = %20
  %30 = load ptr, ptr %9, align 8, !tbaa !9
  %31 = call i32 @_PyType_HasFeature(ptr noundef %30, i64 noundef 256)
  %32 = icmp ne i32 %31, 0
  br i1 %32, label %38, label %33

33:                                               ; preds = %29
  %34 = load ptr, ptr @PyExc_TypeError, align 8, !tbaa !97
  %35 = load ptr, ptr %5, align 8, !tbaa !123
  %36 = load ptr, ptr %9, align 8, !tbaa !9
  %37 = call ptr (ptr, ptr, ...) @PyErr_Format(ptr noundef %34, ptr noundef @.str.52, ptr noundef %35, ptr noundef %36)
  store i32 -1, ptr %4, align 4
  store i32 1, ptr %10, align 4
  br label %39

38:                                               ; preds = %29
  store i32 0, ptr %10, align 4
  br label %39

39:                                               ; preds = %38, %33, %28
  call void @llvm.lifetime.end.p0(i64 8, ptr %9) #11
  %40 = load i32, ptr %10, align 4
  switch i32 %40, label %46 [
    i32 0, label %41
  ]

41:                                               ; preds = %39
  br label %42

42:                                               ; preds = %41
  %43 = load i64, ptr %8, align 8, !tbaa !11
  %44 = add i64 %43, 1
  store i64 %44, ptr %8, align 8, !tbaa !11
  br label %15, !llvm.loop !297

45:                                               ; preds = %15
  store i32 0, ptr %4, align 4
  store i32 1, ptr %10, align 4
  br label %46

46:                                               ; preds = %45, %39
  call void @llvm.lifetime.end.p0(i64 8, ptr %8) #11
  %47 = load i32, ptr %4, align 4
  ret i32 %47
}

; Function Attrs: alwaysinline nounwind uwtable
define internal void @Py_DECREF(ptr noundef %0) #4 {
  %2 = alloca ptr, align 8
  store ptr %0, ptr %2, align 8, !tbaa !97
  %3 = load ptr, ptr %2, align 8, !tbaa !97
  %4 = call i32 @_Py_IsImmortal(ptr noundef %3)
  %5 = icmp ne i32 %4, 0
  br i1 %5, label %6, label %7

6:                                                ; preds = %1
  br label %16

7:                                                ; preds = %1
  %8 = load ptr, ptr %2, align 8, !tbaa !97
  %9 = getelementptr inbounds nuw %struct._object, ptr %8, i32 0, i32 0
  %10 = getelementptr inbounds nuw %struct.anon.4, ptr %9, i32 0, i32 0
  %11 = load i32, ptr %10, align 8, !tbaa !114
  %12 = add i32 %11, -1
  store i32 %12, ptr %10, align 8, !tbaa !114
  %13 = icmp eq i32 %12, 0
  br i1 %13, label %14, label %16

14:                                               ; preds = %7
  %15 = load ptr, ptr %2, align 8, !tbaa !97
  call void @_Py_Dealloc(ptr noundef %15)
  br label %16

16:                                               ; preds = %6, %14, %7
  ret void
}

; Function Attrs: inlinehint nounwind uwtable
define internal i32 @PyType_HasFeature(ptr noundef %0, i64 noundef %1) #2 {
  %3 = alloca ptr, align 8
  %4 = alloca i64, align 8
  %5 = alloca i64, align 8
  store ptr %0, ptr %3, align 8, !tbaa !9
  store i64 %1, ptr %4, align 8, !tbaa !11
  call void @llvm.lifetime.start.p0(i64 8, ptr %5) #11
  %6 = load ptr, ptr %3, align 8, !tbaa !9
  %7 = getelementptr inbounds nuw %struct._typeobject, ptr %6, i32 0, i32 19
  %8 = load i64, ptr %7, align 8, !tbaa !105
  store i64 %8, ptr %5, align 8, !tbaa !11
  %9 = load i64, ptr %5, align 8, !tbaa !11
  %10 = load i64, ptr %4, align 8, !tbaa !11
  %11 = and i64 %9, %10
  %12 = icmp ne i64 %11, 0
  %13 = zext i1 %12 to i32
  call void @llvm.lifetime.end.p0(i64 8, ptr %5) #11
  ret i32 %13
}

; Function Attrs: inlinehint nounwind uwtable
define internal ptr @_Py_TYPE(ptr noundef %0) #2 {
  %2 = alloca ptr, align 8
  store ptr %0, ptr %2, align 8, !tbaa !97
  %3 = load ptr, ptr %2, align 8, !tbaa !97
  %4 = getelementptr inbounds nuw %struct._object, ptr %3, i32 0, i32 1
  %5 = load ptr, ptr %4, align 8, !tbaa !243
  ret ptr %5
}

; Function Attrs: nounwind uwtable
define internal ptr @type_get_mro(ptr noundef %0, ptr noundef %1) #0 {
  %3 = alloca ptr, align 8
  %4 = alloca ptr, align 8
  %5 = alloca ptr, align 8
  store ptr %0, ptr %3, align 8, !tbaa !9
  store ptr %1, ptr %4, align 8, !tbaa !13
  call void @llvm.lifetime.start.p0(i64 8, ptr %5) #11
  %6 = load ptr, ptr %3, align 8, !tbaa !9
  %7 = call ptr @lookup_tp_mro(ptr noundef %6)
  store ptr %7, ptr %5, align 8, !tbaa !97
  %8 = load ptr, ptr %5, align 8, !tbaa !97
  %9 = icmp eq ptr %8, null
  br i1 %9, label %10, label %11

10:                                               ; preds = %2
  store ptr @_Py_NoneStruct, ptr %5, align 8, !tbaa !97
  br label %13

11:                                               ; preds = %2
  %12 = load ptr, ptr %5, align 8, !tbaa !97
  call void @Py_INCREF(ptr noundef %12)
  br label %13

13:                                               ; preds = %11, %10
  %14 = load ptr, ptr %5, align 8, !tbaa !97
  call void @llvm.lifetime.end.p0(i64 8, ptr %5) #11
  ret ptr %14
}

; Function Attrs: nounwind uwtable
define dso_local i32 @PyType_Freeze(ptr noundef %0) #0 {
  %2 = alloca i32, align 4
  %3 = alloca ptr, align 8
  %4 = alloca ptr, align 8
  %5 = alloca i32, align 4
  %6 = alloca i32, align 4
  store ptr %0, ptr %3, align 8, !tbaa !9
  call void @llvm.lifetime.start.p0(i64 8, ptr %4) #11
  %7 = load ptr, ptr %3, align 8, !tbaa !9
  %8 = call ptr @type_get_mro(ptr noundef %7, ptr noundef null)
  store ptr %8, ptr %4, align 8, !tbaa !97
  %9 = load ptr, ptr %4, align 8, !tbaa !97
  %10 = call ptr @_Py_TYPE(ptr noundef %9)
  %11 = call i32 @PyType_HasFeature(ptr noundef %10, i64 noundef 67108864)
  %12 = icmp ne i32 %11, 0
  br i1 %12, label %16, label %13

13:                                               ; preds = %1
  %14 = load ptr, ptr %4, align 8, !tbaa !97
  call void @Py_DECREF(ptr noundef %14)
  %15 = load ptr, ptr @PyExc_TypeError, align 8, !tbaa !97
  call void @PyErr_SetString(ptr noundef %15, ptr noundef @.str.38)
  store i32 -1, ptr %2, align 4
  store i32 1, ptr %5, align 4
  br label %33

16:                                               ; preds = %1
  call void @llvm.lifetime.start.p0(i64 4, ptr %6) #11
  %17 = load ptr, ptr %3, align 8, !tbaa !9
  %18 = getelementptr inbounds nuw %struct._typeobject, ptr %17, i32 0, i32 1
  %19 = load ptr, ptr %18, align 8, !tbaa !239
  %20 = load ptr, ptr %4, align 8, !tbaa !97
  %21 = call i32 @check_immutable_bases(ptr noundef %19, ptr noundef %20, i32 noundef 1)
  store i32 %21, ptr %6, align 4, !tbaa !115
  %22 = load ptr, ptr %4, align 8, !tbaa !97
  call void @Py_DECREF(ptr noundef %22)
  %23 = load i32, ptr %6, align 4, !tbaa !115
  %24 = icmp slt i32 %23, 0
  br i1 %24, label %25, label %26

25:                                               ; preds = %16
  store i32 -1, ptr %2, align 4
  store i32 1, ptr %5, align 4
  br label %32

26:                                               ; preds = %16
  %27 = load ptr, ptr %3, align 8, !tbaa !9
  %28 = getelementptr inbounds nuw %struct._typeobject, ptr %27, i32 0, i32 19
  %29 = load i64, ptr %28, align 8, !tbaa !105
  %30 = or i64 %29, 256
  store i64 %30, ptr %28, align 8, !tbaa !105
  %31 = load ptr, ptr %3, align 8, !tbaa !9
  call void @PyType_Modified(ptr noundef %31)
  store i32 0, ptr %2, align 4
  store i32 1, ptr %5, align 4
  br label %32

32:                                               ; preds = %26, %25
  call void @llvm.lifetime.end.p0(i64 4, ptr %6) #11
  br label %33

33:                                               ; preds = %32, %13
  call void @llvm.lifetime.end.p0(i64 8, ptr %4) #11
  %34 = load i32, ptr %2, align 4
  ret i32 %34
}