; Function Attrs: nounwind uwtable
define dso_local range(i32 -1, 1) i32 @PyType_Freeze(ptr noundef %0) local_unnamed_addr #1 {
  %2 = getelementptr i8, ptr %0, i64 344
  %.val.i = load ptr, ptr %2, align 8, !tbaa !110
  %3 = icmp eq ptr %.val.i, null
  br i1 %3, label %type_get_mro.exit, label %4

4:                                                ; preds = %1
  %5 = load i32, ptr %.val.i, align 8, !tbaa !102
  %6 = icmp slt i32 %5, 0
  br i1 %6, label %type_get_mro.exit, label %7

7:                                                ; preds = %4
  %8 = add nuw i32 %5, 1
  store i32 %8, ptr %.val.i, align 8, !tbaa !102
  br label %type_get_mro.exit

type_get_mro.exit:                                ; preds = %1, %4, %7
  %.0.i = phi ptr [ @_Py_NoneStruct, %1 ], [ %.val.i, %4 ], [ %.val.i, %7 ]
  %9 = getelementptr i8, ptr %.0.i, i64 8
  %.val = load ptr, ptr %9, align 8, !tbaa !116
  %10 = getelementptr i8, ptr %.val, i64 168
  %.val12 = load i64, ptr %10, align 8, !tbaa !108
  %11 = and i64 %.val12, 67108864
  %.not = icmp eq i64 %11, 0
  br i1 %.not, label %12, label %19

12:                                               ; preds = %type_get_mro.exit
  %13 = load i32, ptr %.0.i, align 8, !tbaa !102
  %.not.i9 = icmp sgt i32 %13, -1
  br i1 %.not.i9, label %14, label %Py_DECREF.exit10

14:                                               ; preds = %12
  %15 = add nsw i32 %13, -1
  store i32 %15, ptr %.0.i, align 8, !tbaa !102
  %16 = icmp eq i32 %15, 0
  br i1 %16, label %17, label %Py_DECREF.exit10

17:                                               ; preds = %14
  tail call void @_Py_Dealloc(ptr noundef nonnull %.0.i) #24
  br label %Py_DECREF.exit10

Py_DECREF.exit10:                                 ; preds = %12, %14, %17
  %18 = load ptr, ptr @PyExc_TypeError, align 8, !tbaa !105
  tail call void @PyErr_SetString(ptr noundef %18, ptr noundef nonnull @.str.38) #24
  br label %PyType_Modified.exit

19:                                               ; preds = %type_get_mro.exit
  %20 = getelementptr inbounds nuw i8, ptr %0, i64 24
  %21 = load ptr, ptr %20, align 8, !tbaa !227
  %22 = getelementptr i8, ptr %.0.i, i64 16
  %.val15.i = load i64, ptr %22, align 8, !tbaa !132
  %23 = icmp sgt i64 %.val15.i, 1
  br i1 %23, label %.lr.ph.i, label %check_immutable_bases.exit

.lr.ph.i:                                         ; preds = %19
  %24 = getelementptr inbounds nuw i8, ptr %.0.i, i64 24
  br label %27

25:                                               ; preds = %30
  %26 = add nuw nsw i64 %.01216.i, 1
  %exitcond.not.i = icmp eq i64 %26, %.val15.i
  br i1 %exitcond.not.i, label %check_immutable_bases.exit, label %27, !llvm.loop !257

27:                                               ; preds = %25, %.lr.ph.i
  %.01216.i = phi i64 [ 1, %.lr.ph.i ], [ %26, %25 ]
  %28 = getelementptr [1 x ptr], ptr %24, i64 0, i64 %.01216.i
  %29 = load ptr, ptr %28, align 8, !tbaa !105
  %.not.i13 = icmp eq ptr %29, null
  br i1 %.not.i13, label %check_immutable_bases.exit, label %30

30:                                               ; preds = %27
  %31 = getelementptr i8, ptr %29, i64 168
  %.val.i14 = load i64, ptr %31, align 8, !tbaa !108
  %32 = and i64 %.val.i14, 256
  %.not14.i = icmp eq i64 %32, 0
  br i1 %.not14.i, label %33, label %25

33:                                               ; preds = %30
  %34 = load ptr, ptr @PyExc_TypeError, align 8, !tbaa !105
  %35 = tail call ptr (ptr, ptr, ...) @PyErr_Format(ptr noundef %34, ptr noundef nonnull @.str.52, ptr noundef %21, ptr noundef nonnull %29) #24
  br label %check_immutable_bases.exit

check_immutable_bases.exit:                       ; preds = %25, %27, %19, %33
  %36 = phi i1 [ true, %33 ], [ false, %19 ], [ %.not.i13, %27 ], [ %.not.i13, %25 ]
  %37 = load i32, ptr %.0.i, align 8, !tbaa !102
  %.not.i = icmp sgt i32 %37, -1
  br i1 %.not.i, label %38, label %Py_DECREF.exit

38:                                               ; preds = %check_immutable_bases.exit
  %39 = add nsw i32 %37, -1
  store i32 %39, ptr %.0.i, align 8, !tbaa !102
  %40 = icmp eq i32 %39, 0
  br i1 %40, label %41, label %Py_DECREF.exit

41:                                               ; preds = %38
  tail call void @_Py_Dealloc(ptr noundef nonnull %.0.i) #24
  br label %Py_DECREF.exit

Py_DECREF.exit:                                   ; preds = %check_immutable_bases.exit, %38, %41
  br i1 %36, label %PyType_Modified.exit, label %42

42:                                               ; preds = %Py_DECREF.exit
  %43 = getelementptr inbounds nuw i8, ptr %0, i64 168
  %44 = load i64, ptr %43, align 8, !tbaa !108
  %45 = or i64 %44, 256
  store i64 %45, ptr %43, align 8, !tbaa !108
  %46 = getelementptr inbounds nuw i8, ptr %0, i64 384
  %47 = load i32, ptr %46, align 8, !tbaa !130
  %48 = icmp eq i32 %47, 0
  br i1 %48, label %PyType_Modified.exit, label %49

49:                                               ; preds = %42
  tail call fastcc void @type_modified_unlocked(ptr noundef nonnull %0)
  br label %PyType_Modified.exit

PyType_Modified.exit:                             ; preds = %49, %42, %Py_DECREF.exit, %Py_DECREF.exit10
  %.0 = phi i32 [ -1, %Py_DECREF.exit10 ], [ -1, %Py_DECREF.exit ], [ 0, %42 ], [ 0, %49 ]
  ret i32 %.0
}